target datalayout = "e-m:e-p270:32:32-p271:32:32-p272:64:64-i64:64-i128:128-f80:128-n8:16:32:64-S128"
target triple = "x86_64-pc-linux-gnu"

%struct.packet_netlink_data = type { i32, i32, i16 }

@hf_netlink_route_ifa_label = internal global i32 0, align 4
@hf_netlink_route_ifa_flags32 = internal global i32 0, align 4
@hf_netlink_route_ifa_addr6 = internal global i32 0, align 4
@hf_netlink_route_ifa_addr4 = internal global i32 0, align 4
@.str.416 = private unnamed_addr constant [5 x i8] c": %s\00", align 1

; Function Attrs: null_pointer_is_valid sspstrong uwtable
define internal i32 @dissect_netlink_route_ifa_attrs(ptr noundef %0, ptr noundef %1, ptr noundef %2, ptr noundef %3, i32 noundef %4, i32 noundef %5, i32 noundef %6) #0 {
  %8 = alloca i32, align 4
  %9 = alloca ptr, align 8
  %10 = alloca ptr, align 8
  %11 = alloca ptr, align 8
  %12 = alloca ptr, align 8
  %13 = alloca i32, align 4
  %14 = alloca i32, align 4
  %15 = alloca i32, align 4
  %16 = alloca i32, align 4
  %17 = alloca ptr, align 8
  %18 = alloca i32, align 4
  store ptr %0, ptr %9, align 8
  store ptr %1, ptr %10, align 8
  store ptr %2, ptr %11, align 8
  store ptr %3, ptr %12, align 8
  store i32 %4, ptr %13, align 4
  store i32 %5, ptr %14, align 4
  store i32 %6, ptr %15, align 4
  call void @llvm.lifetime.start.p0(i64 4, ptr %16) #4
  %19 = load i32, ptr %13, align 4
  store i32 %19, ptr %16, align 4
  call void @llvm.lifetime.start.p0(i64 8, ptr %17) #4
  %20 = load i32, ptr %16, align 4
  switch i32 %20, label %68 [
    i32 3, label %21
    i32 8, label %31
    i32 1, label %40
    i32 2, label %40
    i32 4, label %40
  ]

21:                                               ; preds = %7
  %22 = load ptr, ptr %12, align 8
  %23 = load i32, ptr @hf_netlink_route_ifa_label, align 4
  %24 = load ptr, ptr %9, align 8
  %25 = load i32, ptr %14, align 4
  %26 = load i32, ptr %15, align 4
  %27 = call ptr @wmem_packet_scope()
  %28 = call ptr @proto_tree_add_item_ret_string(ptr noundef %22, i32 noundef %23, ptr noundef %24, i32 noundef %25, i32 noundef %26, i32 noundef 0, ptr noundef %27, ptr noundef %17)
  %29 = load ptr, ptr %12, align 8
  %30 = load ptr, ptr %17, align 8
  call void (ptr, ptr, ...) @proto_item_append_text(ptr noundef %29, ptr noundef @.str.416, ptr noundef %30)
  store i32 1, ptr %8, align 4
  store i32 1, ptr %18, align 4
  br label %69

31:                                               ; preds = %7
  %32 = load ptr, ptr %12, align 8
  %33 = load i32, ptr @hf_netlink_route_ifa_flags32, align 4
  %34 = load ptr, ptr %9, align 8
  %35 = load i32, ptr %14, align 4
  %36 = load ptr, ptr %11, align 8
  %37 = getelementptr inbounds nuw %struct.packet_netlink_data, ptr %36, i32 0, i32 1
  %38 = load i32, ptr %37, align 4
  %39 = call ptr @proto_tree_add_item(ptr noundef %32, i32 noundef %33, ptr noundef %34, i32 noundef %35, i32 noundef 4, i32 noundef %38)
  store i32 1, ptr %8, align 4
  store i32 1, ptr %18, align 4
  br label %69

40:                                               ; preds = %7, %7, %7
  %41 = load i32, ptr %15, align 4
  %42 = icmp eq i32 %41, 4
  br i1 %42, label %43, label %55

43:                                               ; preds = %40
  %44 = load ptr, ptr %12, align 8
  %45 = call ptr @wmem_packet_scope()
  %46 = load ptr, ptr %9, align 8
  %47 = load i32, ptr %14, align 4
  %48 = call ptr @tvb_address_to_str(ptr noundef %45, ptr noundef %46, i32 noundef 2, i32 noundef %47)
  call void (ptr, ptr, ...) @proto_item_append_text(ptr noundef %44, ptr noundef @.str.416, ptr noundef %48)
  %49 = load ptr, ptr %12, align 8
  %50 = load i32, ptr @hf_netlink_route_ifa_addr4, align 4
  %51 = load ptr, ptr %9, align 8
  %52 = load i32, ptr %14, align 4
  %53 = load i32, ptr %15, align 4
  %54 = call ptr @proto_tree_add_item(ptr noundef %49, i32 noundef %50, ptr noundef %51, i32 noundef %52, i32 noundef %53, i32 noundef 0)
  br label %67

55:                                               ; preds = %40
  %56 = load ptr, ptr %12, align 8
  %57 = call ptr @wmem_packet_scope()
  %58 = load ptr, ptr %9, align 8
  %59 = load i32, ptr %14, align 4
  %60 = call ptr @tvb_address_to_str(ptr noundef %57, ptr noundef %58, i32 noundef 3, i32 noundef %59)
  call void (ptr, ptr, ...) @proto_item_append_text(ptr noundef %56, ptr noundef @.str.416, ptr noundef %60)
  %61 = load ptr, ptr %12, align 8
  %62 = load i32, ptr @hf_netlink_route_ifa_addr6, align 4
  %63 = load ptr, ptr %9, align 8
  %64 = load i32, ptr %14, align 4
  %65 = load i32, ptr %15, align 4
  %66 = call ptr @proto_tree_add_item(ptr noundef %61, i32 noundef %62, ptr noundef %63, i32 noundef %64, i32 noundef %65, i32 noundef 0)
  br label %67

67:                                               ; preds = %55, %43
  store i32 1, ptr %8, align 4
  store i32 1, ptr %18, align 4
  br label %69

68:                                               ; preds = %7
  store i32 0, ptr %8, align 4
  store i32 1, ptr %18, align 4
  br label %69

69:                                               ; preds = %68, %67, %31, %21
  call void @llvm.lifetime.end.p0(i64 8, ptr %17) #4
  call void @llvm.lifetime.end.p0(i64 4, ptr %16) #4
  %70 = load i32, ptr %8, align 4
  ret i32 %70
}