; Function Attrs: null_pointer_is_valid sspstrong uwtable
define internal range(i32 0, 2) i32 @dissect_netlink_route_ifa_attrs(ptr noundef %0, ptr readnone captures(none) %1, ptr noundef readonly captures(none) %2, ptr noundef %3, i32 noundef %4, i32 noundef %5, i32 noundef %6) #0 {
  %8 = alloca ptr, align 8
  call void @llvm.lifetime.start.p0(i64 8, ptr nonnull %8) #5
  switch i32 %4, label %30 [
    i32 3, label %9
    i32 8, label %14
    i32 1, label %19
    i32 2, label %19
    i32 4, label %19
  ]

9:                                                ; preds = %7
  %10 = load i32, ptr @hf_netlink_route_ifa_label, align 4
  %11 = tail call ptr @wmem_packet_scope()
  %12 = call ptr @proto_tree_add_item_ret_string(ptr noundef %3, i32 noundef %10, ptr noundef %0, i32 noundef %5, i32 noundef %6, i32 noundef 0, ptr noundef %11, ptr noundef nonnull %8)
  %13 = load ptr, ptr %8, align 8
  call void (ptr, ptr, ...) @proto_item_append_text(ptr noundef %3, ptr noundef nonnull @.str.416, ptr noundef %13)
  br label %30

14:                                               ; preds = %7
  %15 = load i32, ptr @hf_netlink_route_ifa_flags32, align 4
  %16 = getelementptr inbounds nuw i8, ptr %2, i64 4
  %17 = load i32, ptr %16, align 4
  %18 = tail call ptr @proto_tree_add_item(ptr noundef %3, i32 noundef %15, ptr noundef %0, i32 noundef %5, i32 noundef 4, i32 noundef %17)
  br label %30

19:                                               ; preds = %7, %7, %7
  %20 = icmp eq i32 %6, 4
  %21 = tail call ptr @wmem_packet_scope()
  br i1 %20, label %22, label %26

22:                                               ; preds = %19
  %23 = tail call ptr @tvb_address_to_str(ptr noundef %21, ptr noundef %0, i32 noundef 2, i32 noundef %5)
  tail call void (ptr, ptr, ...) @proto_item_append_text(ptr noundef %3, ptr noundef nonnull @.str.416, ptr noundef %23)
  %24 = load i32, ptr @hf_netlink_route_ifa_addr4, align 4
  %25 = tail call ptr @proto_tree_add_item(ptr noundef %3, i32 noundef %24, ptr noundef %0, i32 noundef %5, i32 noundef 4, i32 noundef 0)
  br label %30

26:                                               ; preds = %19
  %27 = tail call ptr @tvb_address_to_str(ptr noundef %21, ptr noundef %0, i32 noundef 3, i32 noundef %5)
  tail call void (ptr, ptr, ...) @proto_item_append_text(ptr noundef %3, ptr noundef nonnull @.str.416, ptr noundef %27)
  %28 = load i32, ptr @hf_netlink_route_ifa_addr6, align 4
  %29 = tail call ptr @proto_tree_add_item(ptr noundef %3, i32 noundef %28, ptr noundef %0, i32 noundef %5, i32 noundef %6, i32 noundef 0)
  br label %30

30:                                               ; preds = %7, %22, %26, %14, %9
  %.0 = phi i32 [ 1, %14 ], [ 1, %9 ], [ 1, %26 ], [ 1, %22 ], [ 0, %7 ]
  call void @llvm.lifetime.end.p0(i64 8, ptr nonnull %8) #5
  ret i32 %.0
}